; Function Attrs: mustprogress nofree norecurse nosync nounwind willreturn memory(read, inaccessiblemem: none) uwtable
define noundef i32 @_ZN3spv10spirvbin_t12asOpCodeHashEj(ptr nocapture noundef nonnull readonly align 8 dereferenceable(473) %0, i32 noundef %1) local_unnamed_addr #3 align 2 {
  %3 = getelementptr inbounds i8, ptr %0, i64 8
  %4 = zext i32 %1 to i64
  %5 = load ptr, ptr %3, align 8
  %6 = getelementptr inbounds i32, ptr %5, i64 %4
  %7 = load i32, ptr %6, align 4
  %8 = and i32 %7, 65535
  %cond = icmp eq i32 %8, 12
  br i1 %cond, label %9, label %14

9:                                                ; preds = %2
  %10 = add i32 %1, 4
  %11 = zext i32 %10 to i64
  %12 = getelementptr inbounds i32, ptr %5, i64 %11
  %13 = load i32, ptr %12, align 4
  br label %14

14:                                               ; preds = %2, %9
  %.0 = phi i32 [ %13, %9 ], [ 0, %2 ]
  %15 = mul nuw nsw i32 %8, 19
  %16 = add i32 %.0, %15
  ret i32 %16
}